; Function Attrs: mustprogress nofree norecurse nounwind willreturn uwtable
define void @_ZN4base25PersistentMemoryAllocator8IteratorC2EPKS0_j(ptr noundef nonnull writeonly align 8 captures(none) dereferenceable(16) initializes((0, 16)) %0, ptr noundef %1, i32 noundef %2) unnamed_addr #1 align 2 {
  store ptr %1, ptr %0, align 8, !tbaa !3
  %4 = getelementptr inbounds nuw i8, ptr %0, i64 8
  store i32 %2, ptr %4, align 8, !tbaa !12
  %5 = getelementptr inbounds nuw i8, ptr %0, i64 12
  store i32 0, ptr %5, align 4, !tbaa !12
  %6 = and i32 %2, 7
  %.not.i = icmp eq i32 %6, 0
  br i1 %.not.i, label %7, label %_ZNK4base25PersistentMemoryAllocator8GetBlockEjjjbb.exit.thread

7:                                                ; preds = %3
  %8 = zext i32 %2 to i64
  %9 = icmp ult i32 %2, 56
  br i1 %9, label %_ZNK4base25PersistentMemoryAllocator8GetBlockEjjjbb.exit.thread, label %10

10:                                               ; preds = %7
  %11 = add i32 %2, 16
  %12 = getelementptr inbounds nuw i8, ptr %1, i64 16
  %13 = load i32, ptr %12, align 8, !tbaa !13
  %14 = icmp ugt i32 %11, %13
  br i1 %14, label %_ZNK4base25PersistentMemoryAllocator8GetBlockEjjjbb.exit.thread, label %15

15:                                               ; preds = %10
  %.phi.trans.insert.i = getelementptr inbounds nuw i8, ptr %1, i64 8
  %.pre.i = load ptr, ptr %.phi.trans.insert.i, align 8, !tbaa !20
  %16 = getelementptr inbounds nuw i8, ptr %.pre.i, i64 32
  %17 = load atomic volatile i32, ptr %16 monotonic, align 4
  %.sroa.speculated.i = tail call i32 @llvm.umin.i32(i32 %13, i32 %17)
  %18 = icmp ult i32 %17, %11
  br i1 %18, label %_ZNK4base25PersistentMemoryAllocator8GetBlockEjjjbb.exit.thread, label %19

19:                                               ; preds = %15
  %20 = getelementptr inbounds nuw i8, ptr %.pre.i, i64 %8
  %21 = load volatile i32, ptr %20, align 4, !tbaa !21
  %22 = icmp ult i32 %21, 16
  br i1 %22, label %_ZNK4base25PersistentMemoryAllocator8GetBlockEjjjbb.exit.thread, label %23

23:                                               ; preds = %19
  %24 = load volatile i32, ptr %20, align 4, !tbaa !21
  %25 = add i32 %24, %2
  %26 = icmp ugt i32 %25, %.sroa.speculated.i
  br i1 %26, label %_ZNK4base25PersistentMemoryAllocator8GetBlockEjjjbb.exit.thread, label %27

27:                                               ; preds = %23
  %28 = getelementptr inbounds nuw i8, ptr %20, i64 4
  %29 = load volatile i32, ptr %28, align 4, !tbaa !23
  %.not31.i = icmp eq i32 %29, -931556759
  br i1 %.not31.i, label %_ZNK4base25PersistentMemoryAllocator8GetBlockEjjjbb.exit, label %_ZNK4base25PersistentMemoryAllocator8GetBlockEjjjbb.exit.thread

_ZNK4base25PersistentMemoryAllocator8GetBlockEjjjbb.exit: ; preds = %27
  %30 = getelementptr inbounds nuw i8, ptr %20, i64 12
  %31 = load atomic volatile i32, ptr %30 monotonic, align 4
  %32 = icmp eq i32 %31, 0
  br i1 %32, label %_ZNK4base25PersistentMemoryAllocator8GetBlockEjjjbb.exit.thread, label %33

_ZNK4base25PersistentMemoryAllocator8GetBlockEjjjbb.exit.thread: ; preds = %27, %23, %19, %15, %10, %7, %3, %_ZNK4base25PersistentMemoryAllocator8GetBlockEjjjbb.exit
  store atomic i32 40, ptr %4 release, align 8
  br label %33

33:                                               ; preds = %_ZNK4base25PersistentMemoryAllocator8GetBlockEjjjbb.exit.thread, %_ZNK4base25PersistentMemoryAllocator8GetBlockEjjjbb.exit
  ret void
}